target datalayout = "e-m:e-p270:32:32-p271:32:32-p272:64:64-i64:64-i128:128-f80:128-n8:16:32:64-S128"
target triple = "x86_64-pc-linux-gnu"

%struct._asn1_ctx_t = type { i32, i32, i8, ptr, ptr, ptr, ptr, ptr, %struct.anon, %struct.anon.2, %struct.anon.3, ptr }
%struct.anon = type { i32, i8, i8, i8, ptr, ptr, i32, i32, ptr, ptr, ptr, %union.anon }
%union.anon = type { %struct.anon.0 }
%struct.anon.0 = type { ptr }
%struct.anon.2 = type { ptr, ptr, ptr }
%struct.anon.3 = type { i32, i8, ptr, i32, i32, ptr, ptr, ptr, %union.anon.4 }
%union.anon.4 = type { %struct.anon.5 }
%struct.anon.5 = type { ptr }

@hf_inap_calledAddressValue = internal global i32 0, align 4
@hf_inap_callingAddressValue = internal global i32 0, align 4
@hf_inap_dialledNumber = internal global i32 0, align 4
@hf_inap_callingLineID = internal global i32 0, align 4
@hf_inap_iNServiceControlCode = internal global i32 0, align 4
@hf_inap_iNServiceControlCodeLow = internal global i32 0, align 4
@hf_inap_iNServiceControlCodeHigh = internal global i32 0, align 4
@hf_inap_lineID = internal global i32 0, align 4
@hf_inap_prefix = internal global i32 0, align 4
@hf_inap_correlationID = internal global i32 0, align 4
@hf_inap_assistingSSPIPRoutingAddress = internal global i32 0, align 4
@hf_inap_additionalCallingPartyNumber = internal global i32 0, align 4
@hf_inap_iPAddressValue = internal global i32 0, align 4
@hf_inap_number = internal global i32 0, align 4
@hf_inap_digitsResponse = internal global i32 0, align 4
@ett_inap_calledAddressValue = internal global i32 0, align 4
@ett_inap_callingAddressValue = internal global i32 0, align 4
@ett_inap_additionalCallingPartyNumber = internal global i32 0, align 4
@ett_inap_assistingSSPIPRoutingAddress = internal global i32 0, align 4
@ett_inap_correlationID = internal global i32 0, align 4
@ett_inap_number = internal global i32 0, align 4
@ett_inap_dialledNumber = internal global i32 0, align 4
@ett_inap_callingLineID = internal global i32 0, align 4
@ett_inap_iNServiceControlCode = internal global i32 0, align 4
@ett_inap_iNServiceControlCodeLow = internal global i32 0, align 4
@ett_inap_iNServiceControlCodeHigh = internal global i32 0, align 4
@ett_inap_lineID = internal global i32 0, align 4
@ett_inap_prefix = internal global i32 0, align 4
@ett_inap_iPAddressValue = internal global i32 0, align 4
@ett_inap_digitsResponse = internal global i32 0, align 4
@opcode = internal global i32 0, align 4

; Function Attrs: null_pointer_is_valid sspstrong uwtable
define internal i32 @dissect_inap_Digits(i1 noundef zeroext %0, ptr noundef %1, i32 noundef %2, ptr noundef %3, ptr noundef %4, i32 noundef %5) #0 {
  %7 = alloca i32, align 4
  %8 = alloca i8, align 1
  %9 = alloca ptr, align 8
  %10 = alloca i32, align 4
  %11 = alloca ptr, align 8
  %12 = alloca ptr, align 8
  %13 = alloca i32, align 4
  %14 = alloca ptr, align 8
  %15 = alloca ptr, align 8
  %16 = alloca i32, align 4
  %17 = alloca i8, align 1
  %18 = alloca i32, align 4
  %19 = zext i1 %0 to i8
  store i8 %19, ptr %8, align 1
  store ptr %1, ptr %9, align 8
  store i32 %2, ptr %10, align 4
  store ptr %3, ptr %11, align 8
  store ptr %4, ptr %12, align 8
  store i32 %5, ptr %13, align 4
  call void @llvm.lifetime.start.p0(i64 8, ptr %14) #4
  call void @llvm.lifetime.start.p0(i64 8, ptr %15) #4
  call void @llvm.lifetime.start.p0(i64 4, ptr %16) #4
  store i32 -1, ptr %16, align 4
  call void @llvm.lifetime.start.p0(i64 1, ptr %17) #4
  store i8 0, ptr %17, align 1
  %20 = load i8, ptr %8, align 1, !range !6, !noundef !7
  %21 = trunc i8 %20 to i1
  %22 = load ptr, ptr %11, align 8
  %23 = load ptr, ptr %12, align 8
  %24 = load ptr, ptr %9, align 8
  %25 = load i32, ptr %10, align 4
  %26 = load i32, ptr %13, align 4
  %27 = call i32 @dissect_ber_octet_string(i1 noundef zeroext %21, ptr noundef %22, ptr noundef %23, ptr noundef %24, i32 noundef %25, i32 noundef %26, ptr noundef %14)
  store i32 %27, ptr %10, align 4
  %28 = load ptr, ptr %14, align 8
  %29 = icmp ne ptr %28, null
  br i1 %29, label %32, label %30

30:                                               ; preds = %6
  %31 = load i32, ptr %10, align 4
  store i32 %31, ptr %7, align 4
  store i32 1, ptr %18, align 4
  br label %160

32:                                               ; preds = %6
  %33 = load i32, ptr %13, align 4
  %34 = load i32, ptr @hf_inap_additionalCallingPartyNumber, align 4
  %35 = icmp eq i32 %33, %34
  br i1 %35, label %36, label %38

36:                                               ; preds = %32
  %37 = load i32, ptr @ett_inap_additionalCallingPartyNumber, align 4
  store i32 %37, ptr %16, align 4
  br label %141

38:                                               ; preds = %32
  %39 = load i32, ptr %13, align 4
  %40 = load i32, ptr @hf_inap_assistingSSPIPRoutingAddress, align 4
  %41 = icmp eq i32 %39, %40
  br i1 %41, label %42, label %44

42:                                               ; preds = %38
  %43 = load i32, ptr @ett_inap_assistingSSPIPRoutingAddress, align 4
  store i32 %43, ptr %16, align 4
  br label %140

44:                                               ; preds = %38
  %45 = load i32, ptr %13, align 4
  %46 = load i32, ptr @hf_inap_correlationID, align 4
  %47 = icmp eq i32 %45, %46
  br i1 %47, label %48, label %55

48:                                               ; preds = %44
  %49 = load i32, ptr @ett_inap_correlationID, align 4
  store i32 %49, ptr %16, align 4
  %50 = load i32, ptr @opcode, align 4
  %51 = icmp ne i32 %50, 16
  %52 = select i1 %51, i32 1, i32 0
  %53 = icmp ne i32 %52, 0
  %54 = zext i1 %53 to i8
  store i8 %54, ptr %17, align 1
  br label %139

55:                                               ; preds = %44
  %56 = load i32, ptr %13, align 4
  %57 = load i32, ptr @hf_inap_calledAddressValue, align 4
  %58 = icmp eq i32 %56, %57
  br i1 %58, label %59, label %61

59:                                               ; preds = %55
  %60 = load i32, ptr @ett_inap_calledAddressValue, align 4
  store i32 %60, ptr %16, align 4
  br label %138

61:                                               ; preds = %55
  %62 = load i32, ptr %13, align 4
  %63 = load i32, ptr @hf_inap_callingAddressValue, align 4
  %64 = icmp eq i32 %62, %63
  br i1 %64, label %65, label %67

65:                                               ; preds = %61
  %66 = load i32, ptr @ett_inap_callingAddressValue, align 4
  store i32 %66, ptr %16, align 4
  br label %137

67:                                               ; preds = %61
  %68 = load i32, ptr %13, align 4
  %69 = load i32, ptr @hf_inap_number, align 4
  %70 = icmp eq i32 %68, %69
  br i1 %70, label %71, label %73

71:                                               ; preds = %67
  %72 = load i32, ptr @ett_inap_number, align 4
  store i32 %72, ptr %16, align 4
  br label %136

73:                                               ; preds = %67
  %74 = load i32, ptr %13, align 4
  %75 = load i32, ptr @hf_inap_dialledNumber, align 4
  %76 = icmp eq i32 %74, %75
  br i1 %76, label %77, label %79

77:                                               ; preds = %73
  %78 = load i32, ptr @ett_inap_dialledNumber, align 4
  store i32 %78, ptr %16, align 4
  store i8 1, ptr %17, align 1
  br label %135

79:                                               ; preds = %73
  %80 = load i32, ptr %13, align 4
  %81 = load i32, ptr @hf_inap_callingLineID, align 4
  %82 = icmp eq i32 %80, %81
  br i1 %82, label %83, label %85

83:                                               ; preds = %79
  %84 = load i32, ptr @ett_inap_callingLineID, align 4
  store i32 %84, ptr %16, align 4
  store i8 1, ptr %17, align 1
  br label %134

85:                                               ; preds = %79
  %86 = load i32, ptr %13, align 4
  %87 = load i32, ptr @hf_inap_iNServiceControlCode, align 4
  %88 = icmp eq i32 %86, %87
  br i1 %88, label %89, label %91

89:                                               ; preds = %85
  %90 = load i32, ptr @ett_inap_iNServiceControlCode, align 4
  store i32 %90, ptr %16, align 4
  store i8 1, ptr %17, align 1
  br label %133

91:                                               ; preds = %85
  %92 = load i32, ptr %13, align 4
  %93 = load i32, ptr @hf_inap_iNServiceControlCodeLow, align 4
  %94 = icmp eq i32 %92, %93
  br i1 %94, label %95, label %97

95:                                               ; preds = %91
  %96 = load i32, ptr @ett_inap_iNServiceControlCodeLow, align 4
  store i32 %96, ptr %16, align 4
  store i8 1, ptr %17, align 1
  br label %132

97:                                               ; preds = %91
  %98 = load i32, ptr %13, align 4
  %99 = load i32, ptr @hf_inap_iNServiceControlCodeHigh, align 4
  %100 = icmp eq i32 %98, %99
  br i1 %100, label %101, label %103

101:                                              ; preds = %97
  %102 = load i32, ptr @ett_inap_iNServiceControlCodeHigh, align 4
  store i32 %102, ptr %16, align 4
  store i8 1, ptr %17, align 1
  br label %131

103:                                              ; preds = %97
  %104 = load i32, ptr %13, align 4
  %105 = load i32, ptr @hf_inap_lineID, align 4
  %106 = icmp eq i32 %104, %105
  br i1 %106, label %107, label %109

107:                                              ; preds = %103
  %108 = load i32, ptr @ett_inap_lineID, align 4
  store i32 %108, ptr %16, align 4
  store i8 1, ptr %17, align 1
  br label %130

109:                                              ; preds = %103
  %110 = load i32, ptr %13, align 4
  %111 = load i32, ptr @hf_inap_prefix, align 4
  %112 = icmp eq i32 %110, %111
  br i1 %112, label %113, label %115

113:                                              ; preds = %109
  %114 = load i32, ptr @ett_inap_prefix, align 4
  store i32 %114, ptr %16, align 4
  store i8 1, ptr %17, align 1
  br label %129

115:                                              ; preds = %109
  %116 = load i32, ptr %13, align 4
  %117 = load i32, ptr @hf_inap_iPAddressValue, align 4
  %118 = icmp eq i32 %116, %117
  br i1 %118, label %119, label %121

119:                                              ; preds = %115
  %120 = load i32, ptr @ett_inap_iPAddressValue, align 4
  store i32 %120, ptr %16, align 4
  br label %128

121:                                              ; preds = %115
  %122 = load i32, ptr %13, align 4
  %123 = load i32, ptr @hf_inap_digitsResponse, align 4
  %124 = icmp eq i32 %122, %123
  br i1 %124, label %125, label %127

125:                                              ; preds = %121
  %126 = load i32, ptr @ett_inap_digitsResponse, align 4
  store i32 %126, ptr %16, align 4
  store i8 1, ptr %17, align 1
  br label %127

127:                                              ; preds = %125, %121
  br label %128

128:                                              ; preds = %127, %119
  br label %129

129:                                              ; preds = %128, %113
  br label %130

130:                                              ; preds = %129, %107
  br label %131

131:                                              ; preds = %130, %101
  br label %132

132:                                              ; preds = %131, %95
  br label %133

133:                                              ; preds = %132, %89
  br label %134

134:                                              ; preds = %133, %83
  br label %135

135:                                              ; preds = %134, %77
  br label %136

136:                                              ; preds = %135, %71
  br label %137

137:                                              ; preds = %136, %65
  br label %138

138:                                              ; preds = %137, %59
  br label %139

139:                                              ; preds = %138, %48
  br label %140

140:                                              ; preds = %139, %42
  br label %141

141:                                              ; preds = %140, %36
  %142 = load ptr, ptr %11, align 8
  %143 = getelementptr inbounds nuw %struct._asn1_ctx_t, ptr %142, i32 0, i32 4
  %144 = load ptr, ptr %143, align 8
  %145 = load i32, ptr %16, align 4
  %146 = call ptr @proto_item_add_subtree(ptr noundef %144, i32 noundef %145)
  store ptr %146, ptr %15, align 8
  %147 = load i8, ptr %17, align 1, !range !6, !noundef !7
  %148 = trunc i8 %147 to i1
  br i1 %148, label %149, label %152

149:                                              ; preds = %141
  %150 = load ptr, ptr %14, align 8
  %151 = load ptr, ptr %15, align 8
  call void @dissect_isup_generic_digits_parameter(ptr noundef %150, ptr noundef %151, ptr noundef null)
  br label %158

152:                                              ; preds = %141
  %153 = load ptr, ptr %14, align 8
  %154 = load ptr, ptr %11, align 8
  %155 = getelementptr inbounds nuw %struct._asn1_ctx_t, ptr %154, i32 0, i32 3
  %156 = load ptr, ptr %155, align 8
  %157 = load ptr, ptr %15, align 8
  call void @dissect_isup_generic_number_parameter(ptr noundef %153, ptr noundef %156, ptr noundef %157, ptr noundef null)
  br label %158

158:                                              ; preds = %152, %149
  %159 = load i32, ptr %10, align 4
  store i32 %159, ptr %7, align 4
  store i32 1, ptr %18, align 4
  br label %160

160:                                              ; preds = %158, %30
  call void @llvm.lifetime.end.p0(i64 1, ptr %17) #4
  call void @llvm.lifetime.end.p0(i64 4, ptr %16) #4
  call void @llvm.lifetime.end.p0(i64 8, ptr %15) #4
  call void @llvm.lifetime.end.p0(i64 8, ptr %14) #4
  %161 = load i32, ptr %7, align 4
  ret i32 %161
}