; Function Attrs: null_pointer_is_valid sspstrong uwtable
define internal i32 @dissect_inap_Digits(i1 noundef zeroext %0, ptr noundef %1, i32 noundef %2, ptr noundef %3, ptr noundef %4, i32 noundef %5) #0 {
  %7 = alloca ptr, align 8
  call void @llvm.lifetime.start.p0(i64 8, ptr nonnull %7) #4
  %8 = call i32 @dissect_ber_octet_string(i1 noundef zeroext %0, ptr noundef %3, ptr noundef %4, ptr noundef %1, i32 noundef %2, i32 noundef %5, ptr noundef nonnull %7)
  %9 = load ptr, ptr %7, align 8
  %.not = icmp eq ptr %9, null
  br i1 %.not, label %79, label %10

10:                                               ; preds = %6
  %11 = load i32, ptr @hf_inap_additionalCallingPartyNumber, align 4
  %12 = icmp eq i32 %5, %11
  br i1 %12, label %.thread37, label %13

13:                                               ; preds = %10
  %14 = load i32, ptr @hf_inap_assistingSSPIPRoutingAddress, align 4
  %15 = icmp eq i32 %5, %14
  br i1 %15, label %.thread37, label %16

16:                                               ; preds = %13
  %17 = load i32, ptr @hf_inap_correlationID, align 4
  %18 = icmp eq i32 %5, %17
  br i1 %18, label %19, label %25

19:                                               ; preds = %16
  %20 = load i32, ptr @ett_inap_correlationID, align 4
  %21 = load i32, ptr @opcode, align 4
  %.not40 = icmp eq i32 %21, 16
  %22 = getelementptr inbounds nuw i8, ptr %3, i64 24
  %23 = load ptr, ptr %22, align 8
  %24 = call ptr @proto_item_add_subtree(ptr noundef %23, i32 noundef %20)
  br i1 %.not40, label %74, label %71

25:                                               ; preds = %16
  %26 = load i32, ptr @hf_inap_calledAddressValue, align 4
  %27 = icmp eq i32 %5, %26
  br i1 %27, label %.thread37, label %28

28:                                               ; preds = %25
  %29 = load i32, ptr @hf_inap_callingAddressValue, align 4
  %30 = icmp eq i32 %5, %29
  br i1 %30, label %.thread37, label %31

31:                                               ; preds = %28
  %32 = load i32, ptr @hf_inap_number, align 4
  %33 = icmp eq i32 %5, %32
  br i1 %33, label %.thread37, label %34

34:                                               ; preds = %31
  %35 = load i32, ptr @hf_inap_dialledNumber, align 4
  %36 = icmp eq i32 %5, %35
  br i1 %36, label %.thread, label %37

37:                                               ; preds = %34
  %38 = load i32, ptr @hf_inap_callingLineID, align 4
  %39 = icmp eq i32 %5, %38
  br i1 %39, label %.thread, label %40

40:                                               ; preds = %37
  %41 = load i32, ptr @hf_inap_iNServiceControlCode, align 4
  %42 = icmp eq i32 %5, %41
  br i1 %42, label %.thread, label %43

43:                                               ; preds = %40
  %44 = load i32, ptr @hf_inap_iNServiceControlCodeLow, align 4
  %45 = icmp eq i32 %5, %44
  br i1 %45, label %.thread, label %46

46:                                               ; preds = %43
  %47 = load i32, ptr @hf_inap_iNServiceControlCodeHigh, align 4
  %48 = icmp eq i32 %5, %47
  br i1 %48, label %.thread, label %49

49:                                               ; preds = %46
  %50 = load i32, ptr @hf_inap_lineID, align 4
  %51 = icmp eq i32 %5, %50
  br i1 %51, label %.thread, label %52

52:                                               ; preds = %49
  %53 = load i32, ptr @hf_inap_prefix, align 4
  %54 = icmp eq i32 %5, %53
  br i1 %54, label %.thread, label %55

55:                                               ; preds = %52
  %56 = load i32, ptr @hf_inap_iPAddressValue, align 4
  %57 = icmp eq i32 %5, %56
  br i1 %57, label %.thread37, label %64

.thread:                                          ; preds = %52, %49, %46, %43, %40, %37, %34
  %.029.ph.in = phi ptr [ @ett_inap_dialledNumber, %34 ], [ @ett_inap_callingLineID, %37 ], [ @ett_inap_iNServiceControlCode, %40 ], [ @ett_inap_iNServiceControlCodeLow, %43 ], [ @ett_inap_iNServiceControlCodeHigh, %46 ], [ @ett_inap_lineID, %49 ], [ @ett_inap_prefix, %52 ]
  %.029.ph = load i32, ptr %.029.ph.in, align 4
  %58 = getelementptr inbounds nuw i8, ptr %3, i64 24
  %59 = load ptr, ptr %58, align 8
  %60 = call ptr @proto_item_add_subtree(ptr noundef %59, i32 noundef %.029.ph)
  br label %71

.thread37:                                        ; preds = %55, %31, %28, %25, %13, %10
  %.029.ph36.in = phi ptr [ @ett_inap_additionalCallingPartyNumber, %10 ], [ @ett_inap_assistingSSPIPRoutingAddress, %13 ], [ @ett_inap_calledAddressValue, %25 ], [ @ett_inap_callingAddressValue, %28 ], [ @ett_inap_number, %31 ], [ @ett_inap_iPAddressValue, %55 ]
  %.029.ph36 = load i32, ptr %.029.ph36.in, align 4
  %61 = getelementptr inbounds nuw i8, ptr %3, i64 24
  %62 = load ptr, ptr %61, align 8
  %63 = call ptr @proto_item_add_subtree(ptr noundef %62, i32 noundef %.029.ph36)
  br label %74

64:                                               ; preds = %55
  %65 = load i32, ptr @hf_inap_digitsResponse, align 4
  %66 = icmp eq i32 %5, %65
  %67 = load i32, ptr @ett_inap_digitsResponse, align 4
  %spec.select = select i1 %66, i32 %67, i32 -1
  %68 = getelementptr inbounds nuw i8, ptr %3, i64 24
  %69 = load ptr, ptr %68, align 8
  %70 = call ptr @proto_item_add_subtree(ptr noundef %69, i32 noundef %spec.select)
  br i1 %66, label %71, label %74

71:                                               ; preds = %19, %.thread, %64
  %72 = phi ptr [ %60, %.thread ], [ %70, %64 ], [ %24, %19 ]
  %73 = load ptr, ptr %7, align 8
  call void @dissect_isup_generic_digits_parameter(ptr noundef %73, ptr noundef %72, ptr noundef null)
  br label %79

74:                                               ; preds = %19, %.thread37, %64
  %75 = phi ptr [ %63, %.thread37 ], [ %70, %64 ], [ %24, %19 ]
  %76 = load ptr, ptr %7, align 8
  %77 = getelementptr inbounds nuw i8, ptr %3, i64 16
  %78 = load ptr, ptr %77, align 8
  call void @dissect_isup_generic_number_parameter(ptr noundef %76, ptr noundef %78, ptr noundef %75, ptr noundef null)
  br label %79

79:                                               ; preds = %71, %74, %6
  call void @llvm.lifetime.end.p0(i64 8, ptr nonnull %7) #4
  ret i32 %8
}